(dp1
S'output'
p2
S"<type 'exceptions.AttributeError'> 'Field' object has no attribute 'board'"
p3
sS'layer'
p4
S'C:\\Users\\bryce\\Desktop\\web2py\\applications\\hw3\\controllers/default.py'
p5
sS'code'
p6
S'# -*- coding: utf-8 -*-\n# this file is released under public domain and you can use without limitations\n\n#########################################################################\n## This is a sample controller\n## - index is the default action of any application\n## - user is required for authentication and authorization\n## - download is for downloading files uploaded in the db (does streaming)\n#########################################################################\n\ndef index():\n    """\n    example action using the internationalization operator T and flash\n    rendered by views/default/index.html or views/generic.html\n\n    if you need a simple wiki simply replace the two lines below with:\n    return auth.wiki()\n    """\n    logger.info("Here we are, in the controller.")\n    db.people.name.label = "What\'s your name?"\n    logger.info("Session: %r" % session)\n    row = db(db.people.user_id == auth.user_id).select().first()\n    db.people.user_id.readable = db.people.user_id.writable = False\n    form = SQLFORM(db.people, record=row)\n    # board_list = [\n    #     {\'title\': \'board1\',},\n    #     {\'title\': \'board2\',}\n    # ]\n    # return dict(board_list = board_list)\n    redirect(URL(\'show_boards\'))\n    return dict(board_list = [])\n\n\n@auth.requires_login()\ndef add_board():\n    logger.info("My session is: %r" % session)\n    form = SQLFORM(db.board)\n    if form.process().accepted:\n        session.flash = T(\'the data was inserted\')\n        redirect(URL(\'show_boards\')) #might change to index\n    return dict(form=form)\n\ndef show_boards():\n    board_list = db(db.board).select()\n    return dict(board_list=board_list)\n\n\n\ndef show_posts():\n    post_board_id = request.args(0)\n    for posts in db.posts:\n        if posts.board == post_board_id:\n            post_list = []\n            post_list.append[posts]\n\n\n    return dict(post_list=post_list)\n\n\ndef add_posts():\n\n\n    logger.info("My session is: %r" % session)\n    form = SQLFORM(db.posts)\n    if form.process().accepted:\n        session.flash = T(\'the data was inserted\')\n        redirect(URL(\'default\',\'show_posts\')) #might change to index\n    return dict(form=form)\n\ndef posts_details():\n    posts = db.posts(request.args)\n    if posts is None:\n        session.flash = T(\'No such post\')\n        redirect(URL(\'default\', \'show_posts\'))\n    form = SQLFORM(db.posts, record=posts, readonly=True)\n    edit_button = A(\'Edit\', _class=\'btn btn-warning\',\n                    _href=URL(\'default\', \'posts_edit\', args=[posts.id]))\n    list_button = A(\'View all\', _class=\'btn btn-info\',\n                    _href=URL(\'default\', \'show_posts\'))\n    return dict(form=form, edit_button=edit_button,\n                list_button=list_button)\ndef posts_edit():\n    posts = db.posts(request.args(0))\n    if posts is None:\n        session.flash = T(\'No such posts\')\n        redirect(URL(\'default\', \'show_posts\'))\n    form = SQLFORM(db.posts, record=posts)\n    if form.process().accepted:\n        session.flash = T(\'The data was edited\')\n        redirect(URL(\'default\', \'show_posts\', args=[posts.id]))\n    edit_button = A(\'View\', _class=\'btn btn-warning\',\n                    _href=URL(\'default\', \'show_posts\', args=[posts.id]))\n    return dict(form=form, edit_button=edit_button)\n\n\n\ndef posts():\n    # board_id = request.args(0)\n    # try:\n    #     bid = int(board_id)\n    # except Exception, e:\n    #     session.message = T(\'Bad URL\')\n    #     redirect(URL(\'default\', \'index\'))\n    # b = board_id.get(bid)\n    # if b is None:\n    #     session.message = T(\'no such board\')\n    #     redirect(URL(\'default\', \'index\'))\n    # session.pasta_sauce = "Pesto" #not used\n    return dict(post_list = [])\n\n\n\n\ndef user():\n    """\n    exposes:\n    http://..../[app]/default/user/login\n    http://..../[app]/default/user/logout\n    http://..../[app]/default/user/register\n    http://..../[app]/default/user/profile\n    http://..../[app]/default/user/retrieve_password\n    http://..../[app]/default/user/change_password\n    http://..../[app]/default/user/manage_users (requires membership in\n    http://..../[app]/default/user/bulk_register\n    use @auth.requires_login()\n        @auth.requires_membership(\'group name\')\n        @auth.requires_permission(\'read\',\'table name\',record_id)\n    to decorate functions that need access control\n    """\n    return dict(form=auth())\n\n\n@cache.action()\ndef download():\n    """\n    allows downloading of uploaded files\n    http://..../[app]/default/download/[filename]\n    """\n    return response.download(request, db)\n\n\ndef call():\n    """\n    exposes services. for example:\n    http://..../[app]/default/call/jsonrpc\n    decorate with @services.jsonrpc the functions to expose\n    supports xml, json, xmlrpc, jsonrpc, amfrpc, rss, csv\n    """\n    return service()\n\n\n\nresponse._vars=response._caller(show_posts)\n'
p7
sS'snapshot'
p8
(dp9
sS'traceback'
p10
S'Traceback (most recent call last):\n  File "C:\\Users\\bryce\\Desktop\\web2py\\gluon\\restricted.py", line 227, in restricted\n    exec ccode in environment\n  File "C:\\Users\\bryce\\Desktop\\web2py\\applications\\hw3\\controllers/default.py", line 153, in <module>\n  File "C:\\Users\\bryce\\Desktop\\web2py\\gluon\\globals.py", line 412, in <lambda>\n    self._caller = lambda f: f()\n  File "C:\\Users\\bryce\\Desktop\\web2py\\applications\\hw3\\controllers/default.py", line 52, in show_posts\n    if posts.board == post_board_id:\nAttributeError: \'Field\' object has no attribute \'board\'\n'
p11
s.